  Wed Jun 17 2009 00:35                                                                                                  Page    1







               2500 A.D. 8051 Macro Assembler  -  Version 4.03a
               ------------------------------------------------

                       Input  Filename : s2.asm
                       Output Filename : s2.obj


    1   0000                   		ORG	00H
    2   0000                   	START:
    3   0000   74 00           		MOV	A,#00
    4   0002   F5 80           		MOV	P0,A
    5   0004   7A C8           		MOV	R2,#200
    6   0006   7B F8           	D1:	MOV	R3,#248
    7   0008   DB FE           		DJNZ	R3,$
    8   000A   DA FA           		DJNZ	R2,D1
    9   000C   75 20 00        		MOV	20H,#00H
   10   000F   79 FF           	L1:	MOV	R1,#FFH
   11   0011   7E 08           	L2:	MOV	R6,#08
   12   0013   7C FE           		MOV	R4,#FEH
   13   0015   A8 20           		MOV	R0,20H
   14   0017   EC              	L3:	MOV	A,R4
   15   0018   F5 A0           		MOV	P2,A
   16   001A   23              		RL	A
   17   001B   FC              		MOV	R4,A
   18   001C   E8              		MOV	A,R0
   19   001D   90 00 3A        		MOV	DPTR,#TABLE
   20   0020   93              		MOVC	A,@A+ DPTR
   21   0021   F5 80           		MOV	P0,A
   22   0023   08              		INC	R0
   23   0024   7B 10           		MOV	R3,#10H
   24   0026   7D F8           	D2:	MOV	R5,#248
   25   0028   DD FE           		DJNZ	R5,$
   26   002A   DB FA           		DJNZ	R3,D2
   27   002C   53 A0 00        		ANL	P2,#00
   28   002F   DE E6           		DJNZ	R6,L3
   29   0031   D9 DE           		DJNZ	R1,L2
   30   0033   05 20           		INC	20H
   31   0035   B8 5A D7        		CJNE	R0,#90,L1
   32   0038   01 00           		JMP	START
   33   003A   7F 41 41 41 41  	TABLE	DB	1111111B,1000001B,1000001B,1000001B,1000001B,00H	;C
        003F   00 
   34   0040   7F 08 08 7F 00  		DB	1111111B,0001000B,0001000B,1111111B,0000000B,00H	;H
        0045   00 
   35   0046   3E 41 41 41 3E  		DB	0111110B,1000001B,1000001B,1000001B,0111110B,00H	;O
        004B   00 
   36   004C   7F 20 08 02 7F  		DB	1111111B,0100000B,0001000B,0000010B,1111111B,00H	;N
        0051   00 
   37   0052   3E 41 49 49 2E  		DB	0111110B,1000001B,1001001B,1001001B,0101110B,00H	;G
        0057   00 
   38                          	
   39   0058   40 20 1F 20 40  		DB	1000000B,0100000B,0011111B,0100000B,1000000B,00H	;Y
        005D   00 
   40   005E   7F 49 49 49 49  		DB	1111111B,1001001B,1001001B,1001001B,1001001B,00H	;E
        0063   00 
  Wed Jun 17 2009 00:35                                                                                                  Page    2




   41   0064   7F 49 49 49 49  		DB	1111111B,1001001B,1001001B,1001001B,1001001B,00H	;E
        0069   00 
   42                          	
   43   006A   79 49 49 49 4F  		DB	1111001B,1001001B,1001001B,1001001B,1001111B,00H	;S
        006F   00 
   44   0070   7F 49 49 49 49  		DB	1111111B,1001001B,1001001B,1001001B,1001001B,00H	;E
        0075   00 
   45   0076   7F 20 08 02 7F  		DB	1111111B,0100000B,0001000B,0000010B,1111111B,00H	;N
        007B   00 
   46   007C                   		
   47                          	
   48   007C   7F 41 41 41 41  		DB	1111111B,1000001B,1000001B,1000001B,1000001B,00H	;C
        0081   00 
   49   0082   7F 08 08 7F 00  		DB	1111111B,0001000B,0001000B,1111111B,0000000B,00H	;H
        0087   00 
   50   0088   7F 49 49 49 49  		DB	1111111B,1001001B,1001001B,1001001B,1001001B,00H	;E
        008D   00 
   51   008E   7F 02 3C 02 7F  		DB	1111111B,0000010B,0111100B,0000010B,1111111B,00H	;W
        0093   00 
   52                          	
   53   0094   40 20 1F 20 40  		DB	1000000B,0100000B,0011111B,0100000B,1000000B,00H	;Y
        0099   00 
   54   009A   3E 41 41 41 3E  		DB	0111110B,1000001B,1000001B,1000001B,0111110B,00H	;O
        009F   00 
   55   00A0   7F 20 08 02 7F  		DB	1111111B,0100000B,0001000B,0000010B,1111111B,00H	;N
        00A5   00 
   56   00A6   3E 41 49 49 2E  		DB	0111110B,1000001B,1001001B,1001001B,0101110B,00H	;G
        00AB   00 
   57   00AC                   		
   58   00AC   40 7E 41 41 42  		DB	1000000B,1111110B,1000001B,1000001B,1000010B,00H	;J
        00B1   00 
   59   00B2   41 41 7F 41 41  		DB	1000001B,1000001B,1111111B,1000001B,1000001B,00H	;I
        00B7   00 
   60   00B8   1F 24 44 24 1F  		DB	0011111B,0100100B,1000100B,0100100B,0011111B,00H	;A
        00BD   00 
   61   00BE   7F 20 08 02 7F  		DB	1111111B,0100000B,0001000B,0000010B,1111111B,00H	;N
        00C3   00 
   62   00C4                   		END
  Wed Jun 17 2009 00:35                                                                                                  Page    3


Defined            Symbol Name             Value                References

  Pre    BSECT                              0000      
  Pre    CODE                               0000            1
    6    D1                                 0006            8
   24    D2                                 0026           26
  Pre    DATA                               0000      
   10    L1                                 000F           31
   11    L2                                 0011           29
   14    L3                                 0017           28
  Pre    RSECT                              0000      
    2    START                              0000           32
   33    TABLE                              003A           19




           Lines Assembled :  62             Assembly Errors :  0


